; Function Attrs: mustprogress uwtable
define void @_ZN4cvc56parser11ParserState7warningERKNSt7__cxx1112basic_stringIcSt11char_traitsIcESaIcEEE(ptr nocapture noundef nonnull readonly align 8 dereferenceable(168) %this, ptr noundef nonnull align 8 dereferenceable(32) %msg) local_unnamed_addr #3 align 2 {
entry:
  %d_psc = getelementptr inbounds i8, ptr %this, i64 16
  %0 = load ptr, ptr %d_psc, align 8
  %vtable = load ptr, ptr %0, align 8
  %vfn = getelementptr inbounds i8, ptr %vtable, i64 16
  %1 = load ptr, ptr %vfn, align 8
  tail call void %1(ptr noundef nonnull align 8 dereferenceable(8) %0, ptr noundef nonnull align 8 dereferenceable(32) %msg)
  ret void
}